target datalayout = "e-m:e-p270:32:32-p271:32:32-p272:64:64-i64:64-i128:128-f80:128-n8:16:32:64-S128"
target triple = "x86_64-pc-linux-gnu"

; Function Attrs: nounwind uwtable
define hidden void @EC_POINT_clear_free(ptr noundef %0) #1 {
  %2 = alloca ptr, align 8
  store ptr %0, ptr %2, align 8, !tbaa !29
  %3 = load ptr, ptr %2, align 8, !tbaa !29
  %4 = icmp ne ptr %3, null
  br i1 %4, label %6, label %5

5:                                                ; preds = %1
  br label %10

6:                                                ; preds = %1
  %7 = load ptr, ptr %2, align 8, !tbaa !29
  call void @ec_GFp_simple_point_clear_finish(ptr noundef %7)
  %8 = load ptr, ptr %2, align 8, !tbaa !29
  call void @OPENSSL_cleanse(ptr noundef %8, i64 noundef 80)
  %9 = load ptr, ptr %2, align 8, !tbaa !29
  call void @free(ptr noundef %9) #7
  br label %10

10:                                               ; preds = %6, %5
  ret void
}