; Function Attrs: nounwind uwtable
define hidden void @EC_POINT_clear_free(ptr noundef %0) local_unnamed_addr #1 {
  %.not = icmp eq ptr %0, null
  br i1 %.not, label %3, label %2

2:                                                ; preds = %1
  tail call void @ec_GFp_simple_point_clear_finish(ptr noundef nonnull %0) #11
  tail call void @OPENSSL_cleanse(ptr noundef nonnull %0, i64 noundef 80) #11
  tail call void @free(ptr noundef nonnull %0) #11
  br label %3

3:                                                ; preds = %1, %2
  ret void
}